target datalayout = "e-m:e-p270:32:32-p271:32:32-p272:64:64-i64:64-i128:128-f80:128-n8:16:32:64-S128"
target triple = "x86_64-unknown-linux-gnu"

%"class.icu_75::MaybeStackArray" = type <{ ptr, i32, i8, [40 x i8], [3 x i8] }>
%"class.icu_75::number::impl::CurrencySymbols" = type { [8 x i8], %"class.icu_75::CurrencyUnit", %"class.icu_75::CharString", %"class.icu_75::UnicodeString", %"class.icu_75::UnicodeString" }
%"class.icu_75::CurrencyUnit" = type { %"class.icu_75::MeasureUnit.base", [4 x i16], [4 x i8] }
%"class.icu_75::MeasureUnit.base" = type <{ %"class.icu_75::UObject", ptr, i16, i8 }>
%"class.icu_75::UObject" = type { ptr }
%"class.icu_75::CharString" = type { %"class.icu_75::MaybeStackArray", i32, [4 x i8] }
%"class.icu_75::UnicodeString" = type { %"class.icu_75::Replaceable", %"union.icu_75::UnicodeString::StackBufferOrFields" }
%"class.icu_75::Replaceable" = type { %"class.icu_75::UObject" }
%"union.icu_75::UnicodeString::StackBufferOrFields" = type { %struct.anon.0, [32 x i8] }
%struct.anon.0 = type { i16, i32, i32, ptr }
%"class.icu_75::ConstChar16Ptr" = type { ptr }

; Function Attrs: mustprogress nounwind uwtable
define weak_odr noundef ptr @_ZNK6icu_7515MaybeStackArrayIcLi40EE8getAliasEv(ptr noundef nonnull align 8 dereferenceable(53) %this) #0 comdat align 2 {
entry:
  %this.addr = alloca ptr, align 8
  store ptr %this, ptr %this.addr, align 8
  %this1 = load ptr, ptr %this.addr, align 8
  %ptr = getelementptr inbounds %"class.icu_75::MaybeStackArray", ptr %this1, i32 0, i32 0
  %0 = load ptr, ptr %ptr, align 8
  ret ptr %0
}

; Function Attrs: mustprogress nounwind uwtable
define linkonce_odr void @_ZN6icu_7514ConstChar16PtrD2Ev(ptr noundef nonnull align 8 dereferenceable(8) %this) unnamed_addr #0 comdat align 2 {
entry:
  %this.addr = alloca ptr, align 8
  store ptr %this, ptr %this.addr, align 8
  %this1 = load ptr, ptr %this.addr, align 8
  %p_ = getelementptr inbounds %"class.icu_75::ConstChar16Ptr", ptr %this1, i32 0, i32 0
  %0 = load ptr, ptr %p_, align 8
  call void asm sideeffect "", "rm,~{memory},~{dirflag},~{fpsr},~{flags}"(ptr %0) #8, !srcloc !4
  ret void
}

; Function Attrs: mustprogress nounwind uwtable
define linkonce_odr void @_ZN6icu_7514ConstChar16PtrC2EPKDs(ptr noundef nonnull align 8 dereferenceable(8) %this, ptr noundef %p) unnamed_addr #0 comdat align 2 {
entry:
  %this.addr = alloca ptr, align 8
  %p.addr = alloca ptr, align 8
  store ptr %this, ptr %this.addr, align 8
  store ptr %p, ptr %p.addr, align 8
  %this1 = load ptr, ptr %this.addr, align 8
  %p_ = getelementptr inbounds %"class.icu_75::ConstChar16Ptr", ptr %this1, i32 0, i32 0
  %0 = load ptr, ptr %p.addr, align 8
  store ptr %0, ptr %p_, align 8
  ret void
}

; Function Attrs: mustprogress nounwind uwtable
define linkonce_odr noundef ptr @_ZNK6icu_7510CharString4dataEv(ptr noundef nonnull align 8 dereferenceable(60) %this) #0 comdat align 2 {
entry:
  %this.addr = alloca ptr, align 8
  store ptr %this, ptr %this.addr, align 8
  %this1 = load ptr, ptr %this.addr, align 8
  %buffer = getelementptr inbounds %"class.icu_75::CharString", ptr %this1, i32 0, i32 0
  %call = call noundef ptr @_ZNK6icu_7515MaybeStackArrayIcLi40EE8getAliasEv(ptr noundef nonnull align 8 dereferenceable(53) %buffer)
  ret ptr %call
}

; Function Attrs: mustprogress nounwind uwtable
define linkonce_odr noundef ptr @_ZNK6icu_7512CurrencyUnit14getISOCurrencyEv(ptr noundef nonnull align 8 dereferenceable(28) %this) #0 comdat align 2 {
entry:
  %this.addr = alloca ptr, align 8
  store ptr %this, ptr %this.addr, align 8
  %this1 = load ptr, ptr %this.addr, align 8
  %isoCode = getelementptr inbounds %"class.icu_75::CurrencyUnit", ptr %this1, i32 0, i32 1
  %arraydecay = getelementptr inbounds [4 x i16], ptr %isoCode, i64 0, i64 0
  ret ptr %arraydecay
}

; Function Attrs: mustprogress uwtable
define void @_ZNK6icu_756number4impl15CurrencySymbols10loadSymbolE14UCurrNameStyleR10UErrorCode(ptr noalias sret(%"class.icu_75::UnicodeString") align 8 %agg.result, ptr noundef nonnull align 8 dereferenceable(232) %this, i32 noundef %selector, ptr noundef nonnull align 4 dereferenceable(4) %status) #1 align 2 personality ptr @__gxx_personality_v0 {
entry:
  %result.ptr = alloca ptr, align 8
  %this.addr = alloca ptr, align 8
  %selector.addr = alloca i32, align 4
  %status.addr = alloca ptr, align 8
  %isoCode = alloca ptr, align 8
  %symbolLen = alloca i32, align 4
  %symbol = alloca ptr, align 8
  %agg.tmp = alloca %"class.icu_75::ConstChar16Ptr", align 8
  %exn.slot = alloca ptr, align 8
  %ehselector.slot = alloca i32, align 4
  store ptr %agg.result, ptr %result.ptr, align 8
  store ptr %this, ptr %this.addr, align 8
  store i32 %selector, ptr %selector.addr, align 4
  store ptr %status, ptr %status.addr, align 8
  %this1 = load ptr, ptr %this.addr, align 8
  %fCurrency = getelementptr inbounds %"class.icu_75::number::impl::CurrencySymbols", ptr %this1, i32 0, i32 1
  %call = call noundef ptr @_ZNK6icu_7512CurrencyUnit14getISOCurrencyEv(ptr noundef nonnull align 8 dereferenceable(28) %fCurrency)
  store ptr %call, ptr %isoCode, align 8
  store i32 0, ptr %symbolLen, align 4
  %0 = load ptr, ptr %isoCode, align 8
  %fLocaleName = getelementptr inbounds %"class.icu_75::number::impl::CurrencySymbols", ptr %this1, i32 0, i32 2
  %call2 = call noundef ptr @_ZNK6icu_7510CharString4dataEv(ptr noundef nonnull align 8 dereferenceable(60) %fLocaleName)
  %1 = load i32, ptr %selector.addr, align 4
  %2 = load ptr, ptr %status.addr, align 8
  %call3 = call ptr @ucurr_getName_75(ptr noundef %0, ptr noundef %call2, i32 noundef %1, ptr noundef null, ptr noundef %symbolLen, ptr noundef %2)
  store ptr %call3, ptr %symbol, align 8
  %3 = load ptr, ptr %symbol, align 8
  %4 = load ptr, ptr %isoCode, align 8
  %cmp = icmp eq ptr %3, %4
  br i1 %cmp, label %if.then, label %if.else

if.then:                                          ; preds = %entry
  %5 = load ptr, ptr %isoCode, align 8
  call void @_ZN6icu_7513UnicodeStringC1EPKDsi(ptr noundef nonnull align 8 dereferenceable(64) %agg.result, ptr noundef %5, i32 noundef 3)
  br label %return

if.else:                                          ; preds = %entry
  %6 = load ptr, ptr %symbol, align 8
  call void @_ZN6icu_7514ConstChar16PtrC2EPKDs(ptr noundef nonnull align 8 dereferenceable(8) %agg.tmp, ptr noundef %6)
  %7 = load i32, ptr %symbolLen, align 4
  invoke void @_ZN6icu_7513UnicodeStringC1EaNS_14ConstChar16PtrEi(ptr noundef nonnull align 8 dereferenceable(64) %agg.result, i8 noundef signext 1, ptr noundef %agg.tmp, i32 noundef %7)
          to label %invoke.cont unwind label %lpad

invoke.cont:                                      ; preds = %if.else
  call void @_ZN6icu_7514ConstChar16PtrD2Ev(ptr noundef nonnull align 8 dereferenceable(8) %agg.tmp) #8
  br label %return

lpad:                                             ; preds = %if.else
  %8 = landingpad { ptr, i32 }
          cleanup
  %9 = extractvalue { ptr, i32 } %8, 0
  store ptr %9, ptr %exn.slot, align 8
  %10 = extractvalue { ptr, i32 } %8, 1
  store i32 %10, ptr %ehselector.slot, align 4
  call void @_ZN6icu_7514ConstChar16PtrD2Ev(ptr noundef nonnull align 8 dereferenceable(8) %agg.tmp) #8
  br label %eh.resume

return:                                           ; preds = %invoke.cont, %if.then
  ret void

eh.resume:                                        ; preds = %lpad
  %exn = load ptr, ptr %exn.slot, align 8
  %sel = load i32, ptr %ehselector.slot, align 4
  %lpad.val = insertvalue { ptr, i32 } poison, ptr %exn, 0
  %lpad.val4 = insertvalue { ptr, i32 } %lpad.val, i32 %sel, 1
  resume { ptr, i32 } %lpad.val4
}

; Function Attrs: mustprogress nounwind uwtable
define linkonce_odr noundef signext i8 @_ZNK6icu_7513UnicodeString7isBogusEv(ptr noundef nonnull align 8 dereferenceable(64) %this) #0 comdat align 2 {
entry:
  %this.addr = alloca ptr, align 8
  store ptr %this, ptr %this.addr, align 8
  %this1 = load ptr, ptr %this.addr, align 8
  %fUnion = getelementptr inbounds %"class.icu_75::UnicodeString", ptr %this1, i32 0, i32 1
  %fLengthAndFlags = getelementptr inbounds %struct.anon.0, ptr %fUnion, i32 0, i32 0
  %0 = load i16, ptr %fLengthAndFlags, align 8
  %conv = sext i16 %0 to i32
  %and = and i32 %conv, 1
  %conv2 = trunc i32 %and to i8
  ret i8 %conv2
}

; Function Attrs: mustprogress uwtable
define void @_ZNK6icu_756number4impl15CurrencySymbols17getCurrencySymbolER10UErrorCode(ptr noalias sret(%"class.icu_75::UnicodeString") align 8 %agg.result, ptr noundef nonnull align 8 dereferenceable(232) %this, ptr noundef nonnull align 4 dereferenceable(4) %status) #1 align 2 {
entry:
  %result.ptr = alloca ptr, align 8
  %this.addr = alloca ptr, align 8
  %status.addr = alloca ptr, align 8
  store ptr %agg.result, ptr %result.ptr, align 8
  store ptr %this, ptr %this.addr, align 8
  store ptr %status, ptr %status.addr, align 8
  %this1 = load ptr, ptr %this.addr, align 8
  %fCurrencySymbol = getelementptr inbounds %"class.icu_75::number::impl::CurrencySymbols", ptr %this1, i32 0, i32 3
  %call = call noundef signext i8 @_ZNK6icu_7513UnicodeString7isBogusEv(ptr noundef nonnull align 8 dereferenceable(64) %fCurrencySymbol)
  %tobool = icmp ne i8 %call, 0
  br i1 %tobool, label %if.end, label %if.then

if.then:                                          ; preds = %entry
  %fCurrencySymbol2 = getelementptr inbounds %"class.icu_75::number::impl::CurrencySymbols", ptr %this1, i32 0, i32 3
  call void @_ZN6icu_7513UnicodeStringC1ERKS0_(ptr noundef nonnull align 8 dereferenceable(64) %agg.result, ptr noundef nonnull align 8 dereferenceable(64) %fCurrencySymbol2)
  br label %return

if.end:                                           ; preds = %entry
  %0 = load ptr, ptr %status.addr, align 8
  call void @_ZNK6icu_756number4impl15CurrencySymbols10loadSymbolE14UCurrNameStyleR10UErrorCode(ptr sret(%"class.icu_75::UnicodeString") align 8 %agg.result, ptr noundef nonnull align 8 dereferenceable(232) %this1, i32 noundef 0, ptr noundef nonnull align 4 dereferenceable(4) %0)
  br label %return

return:                                           ; preds = %if.end, %if.then
  ret void
}